; Function Attrs: mustprogress uwtable
define noundef i32 @_ZN13duckdb_apache6thrift9transport13TMemoryBuffer18readAppendToStringERNSt7__cxx1112basic_stringIcSt11char_traitsIcESaIcEEEj(ptr noundef nonnull align 8 captures(none) dereferenceable(57) %0, ptr noundef nonnull align 8 dereferenceable(32) %1, i32 noundef %2) local_unnamed_addr #4 align 2 {
  %4 = getelementptr inbounds nuw i8, ptr %0, i64 40
  %5 = load ptr, ptr %4, align 8, !tbaa !17
  %6 = icmp eq ptr %5, null
  br i1 %6, label %25, label %7

7:                                                ; preds = %3
  %8 = getelementptr inbounds nuw i8, ptr %0, i64 24
  %9 = load ptr, ptr %8, align 8, !tbaa !3
  %10 = getelementptr inbounds nuw i8, ptr %0, i64 16
  store ptr %9, ptr %10, align 8, !tbaa !12
  %11 = getelementptr inbounds nuw i8, ptr %0, i64 8
  %12 = load ptr, ptr %11, align 8, !tbaa !13
  %13 = ptrtoint ptr %9 to i64
  %14 = ptrtoint ptr %12 to i64
  %15 = sub i64 %13, %14
  %16 = trunc i64 %15 to i32
  %.sroa.speculated.i = tail call i32 @llvm.umin.i32(i32 %2, i32 %16)
  %17 = zext i32 %.sroa.speculated.i to i64
  %18 = getelementptr inbounds nuw i8, ptr %12, i64 %17
  store ptr %18, ptr %11, align 8, !tbaa !13
  %19 = getelementptr inbounds nuw i8, ptr %1, i64 8
  %20 = load i64, ptr %19, align 8, !tbaa !21
  %21 = sub i64 4611686018427387903, %20
  %22 = icmp ult i64 %21, %17
  br i1 %22, label %23, label %_ZNSt7__cxx1112basic_stringIcSt11char_traitsIcESaIcEE6appendEPKcm.exit

23:                                               ; preds = %7
  tail call void @_ZSt20__throw_length_errorPKc(ptr noundef nonnull @.str.6) #15
  unreachable

_ZNSt7__cxx1112basic_stringIcSt11char_traitsIcESaIcEE6appendEPKcm.exit: ; preds = %7
  %24 = tail call noundef nonnull align 8 dereferenceable(32) ptr @_ZNSt7__cxx1112basic_stringIcSt11char_traitsIcESaIcEE9_M_appendEPKcm(ptr noundef nonnull align 8 dereferenceable(32) %1, ptr noundef %12, i64 noundef %17)
  br label %25

25:                                               ; preds = %3, %_ZNSt7__cxx1112basic_stringIcSt11char_traitsIcESaIcEE6appendEPKcm.exit
  %.0 = phi i32 [ %.sroa.speculated.i, %_ZNSt7__cxx1112basic_stringIcSt11char_traitsIcESaIcEE6appendEPKcm.exit ], [ 0, %3 ]
  ret i32 %.0
}